; Function Attrs: mustprogress uwtable
define void @_ZNK10open_spiel10algorithms16CCETabularPolicy14GetStatePolicyERKNS_5StateE(ptr dead_on_unwind noalias writable writeonly sret(%"class.std::vector.10") align 8 captures(none) %0, ptr nonnull readnone align 8 captures(none) %1, ptr noundef nonnull align 8 dereferenceable(60) %2) unnamed_addr #3 align 2 personality ptr @__gxx_personality_v0 {
  %4 = alloca %"class.std::__cxx11::basic_string", align 8
  %5 = alloca i32, align 4
  %6 = tail call ptr @__dynamic_cast(ptr nonnull %2, ptr nonnull @_ZTIN10open_spiel5StateE, ptr nonnull @_ZTIN10open_spiel10algorithms8CCEStateE, i64 0) #21
  %.not = icmp eq ptr %6, null
  br i1 %.not, label %7, label %11

7:                                                ; preds = %3
  store i32 98, ptr %5, align 4
  call void @_ZN10open_spiel8internal11SpielStrCatIJRA137_KcRA2_S2_iRA13_S2_RA21_S2_S6_EEENSt7__cxx1112basic_stringIcSt11char_traitsIcESaIcEEEDpOT_(ptr dead_on_unwind nonnull writable sret(%"class.std::__cxx11::basic_string") align 8 %4, ptr noundef nonnull align 1 dereferenceable(137) @.str, ptr noundef nonnull align 1 dereferenceable(2) @.str.1, ptr noundef nonnull align 4 dereferenceable(4) %5, ptr noundef nonnull align 1 dereferenceable(13) @.str.13, ptr noundef nonnull align 1 dereferenceable(21) @.str.14, ptr noundef nonnull align 1 dereferenceable(2) @.str.4)
  invoke void @_ZN10open_spiel15SpielFatalErrorERKNSt7__cxx1112basic_stringIcSt11char_traitsIcESaIcEEE(ptr noundef nonnull align 8 dereferenceable(32) %4) #22
          to label %8 unwind label %9

8:                                                ; preds = %7
  unreachable

9:                                                ; preds = %7
  %10 = landingpad { ptr, i32 }
          cleanup
  call void @_ZNSt7__cxx1112basic_stringIcSt11char_traitsIcESaIcEED1Ev(ptr noundef nonnull align 8 dereferenceable(32) %4) #21
  resume { ptr, i32 } %10

11:                                               ; preds = %3
  tail call void @_ZNK10open_spiel10algorithms8CCEState29CurrentRecommendedStatePolicyEv(ptr dead_on_unwind writable sret(%"class.std::vector.10") align 8 %0, ptr noundef nonnull align 8 dereferenceable(124) %6)
  ret void
}